; Function Attrs: mustprogress uwtable
define hidden void @_ZN16fpa2bv_converter7mk_zeroEP4sortR7obj_refI4expr11ast_managerES6_(ptr noundef nonnull align 8 dereferenceable(496) %0, ptr noundef %1, ptr noundef nonnull readonly align 8 captures(none) dereferenceable(16) %2, ptr noundef nonnull align 8 dereferenceable(16) %3) local_unnamed_addr #3 align 2 personality ptr @__gxx_personality_v0 {
  %5 = alloca %class.obj_ref, align 8
  %6 = alloca %class.obj_ref, align 8
  %7 = alloca %class.obj_ref, align 8
  call void @llvm.lifetime.start.p0(i64 16, ptr nonnull %5) #23
  %8 = getelementptr inbounds nuw i8, ptr %0, i64 8
  %9 = load ptr, ptr %8, align 8, !tbaa !130
  store ptr null, ptr %5, align 8, !tbaa !164
  %10 = getelementptr inbounds nuw i8, ptr %5, i64 8
  store ptr %9, ptr %10, align 8, !tbaa !6
  call void @llvm.lifetime.start.p0(i64 16, ptr nonnull %6) #23
  store ptr null, ptr %6, align 8, !tbaa !164
  %11 = getelementptr inbounds nuw i8, ptr %6, i64 8
  store ptr %9, ptr %11, align 8, !tbaa !6
  call void @llvm.lifetime.start.p0(i64 16, ptr nonnull %7) #23
  store ptr null, ptr %7, align 8, !tbaa !164
  %12 = getelementptr inbounds nuw i8, ptr %7, i64 8
  store ptr %9, ptr %12, align 8, !tbaa !6
  %13 = load ptr, ptr %2, align 8, !tbaa !164
  %14 = getelementptr inbounds nuw i8, ptr %0, i64 88
  %15 = invoke noundef ptr @_ZNK7bv_util10mk_numeralEmj(ptr noundef nonnull align 8 dereferenceable(24) %14, i64 noundef 0, i32 noundef 1)
          to label %16 unwind label %56

16:                                               ; preds = %4
  %17 = invoke noundef ptr @_ZN11ast_manager6mk_appEiiP4exprS1_(ptr noundef nonnull align 8 dereferenceable(976) %9, i32 noundef 0, i32 noundef 2, ptr noundef %13, ptr noundef %15)
          to label %_ZN11ast_manager5mk_eqEP4exprS1_.exit unwind label %56

_ZN11ast_manager5mk_eqEP4exprS1_.exit:            ; preds = %16
  %.not.i = icmp eq ptr %17, null
  br i1 %.not.i, label %21, label %_ZN11ast_manager7inc_refEP3ast.exit.i

_ZN11ast_manager7inc_refEP3ast.exit.i:            ; preds = %_ZN11ast_manager5mk_eqEP4exprS1_.exit
  %18 = getelementptr inbounds nuw i8, ptr %17, i64 8
  %19 = load i32, ptr %18, align 4, !tbaa !125
  %20 = add i32 %19, 1
  store i32 %20, ptr %18, align 4, !tbaa !125
  br label %21

21:                                               ; preds = %_ZN11ast_manager5mk_eqEP4exprS1_.exit, %_ZN11ast_manager7inc_refEP3ast.exit.i
  store ptr %17, ptr %5, align 8, !tbaa !164
  invoke void @_ZN16fpa2bv_converter8mk_pzeroEP4sortR7obj_refI4expr11ast_managerE(ptr noundef nonnull align 8 dereferenceable(496) %0, ptr noundef %1, ptr noundef nonnull align 8 dereferenceable(16) %6)
          to label %22 unwind label %56

22:                                               ; preds = %21
  invoke void @_ZN16fpa2bv_converter8mk_nzeroEP4sortR7obj_refI4expr11ast_managerE(ptr noundef nonnull align 8 dereferenceable(496) %0, ptr noundef %1, ptr noundef nonnull align 8 dereferenceable(16) %7)
          to label %23 unwind label %56

23:                                               ; preds = %22
  %24 = load ptr, ptr %6, align 8, !tbaa !164
  %25 = load ptr, ptr %7, align 8, !tbaa !164
  invoke void @_ZN16fpa2bv_converter6mk_iteEP4exprS1_S1_R7obj_refIS0_11ast_managerE(ptr noundef nonnull align 8 dereferenceable(496) %0, ptr noundef %17, ptr noundef %24, ptr noundef %25, ptr noundef nonnull align 8 dereferenceable(16) %3)
          to label %26 unwind label %56

26:                                               ; preds = %23
  %.not.i.i = icmp eq ptr %25, null
  br i1 %.not.i.i, label %_ZN7obj_refI4expr11ast_managerED2Ev.exit, label %27

27:                                               ; preds = %26
  %28 = load ptr, ptr %12, align 8, !tbaa !166
  %29 = getelementptr inbounds nuw i8, ptr %25, i64 8
  %30 = load i32, ptr %29, align 4, !tbaa !125
  %31 = add i32 %30, -1
  store i32 %31, ptr %29, align 4, !tbaa !125
  %32 = icmp eq i32 %31, 0
  br i1 %32, label %33, label %_ZN7obj_refI4expr11ast_managerED2Ev.exit

33:                                               ; preds = %27
  invoke void @_ZN11ast_manager11delete_nodeEP3ast(ptr noundef nonnull align 8 dereferenceable(976) %28, ptr noundef nonnull %25)
          to label %_ZN7obj_refI4expr11ast_managerED2Ev.exit unwind label %34

34:                                               ; preds = %33
  %35 = landingpad { ptr, i32 }
          catch ptr null
  %36 = extractvalue { ptr, i32 } %35, 0
  tail call void @__clang_call_terminate(ptr %36) #24
  unreachable

_ZN7obj_refI4expr11ast_managerED2Ev.exit:         ; preds = %26, %27, %33
  call void @llvm.lifetime.end.p0(i64 16, ptr nonnull %7) #23
  %.not.i.i6 = icmp eq ptr %24, null
  br i1 %.not.i.i6, label %_ZN7obj_refI4expr11ast_managerED2Ev.exit7, label %37

37:                                               ; preds = %_ZN7obj_refI4expr11ast_managerED2Ev.exit
  %38 = load ptr, ptr %11, align 8, !tbaa !166
  %39 = getelementptr inbounds nuw i8, ptr %24, i64 8
  %40 = load i32, ptr %39, align 4, !tbaa !125
  %41 = add i32 %40, -1
  store i32 %41, ptr %39, align 4, !tbaa !125
  %42 = icmp eq i32 %41, 0
  br i1 %42, label %43, label %_ZN7obj_refI4expr11ast_managerED2Ev.exit7

43:                                               ; preds = %37
  invoke void @_ZN11ast_manager11delete_nodeEP3ast(ptr noundef nonnull align 8 dereferenceable(976) %38, ptr noundef nonnull %24)
          to label %_ZN7obj_refI4expr11ast_managerED2Ev.exit7 unwind label %44

44:                                               ; preds = %43
  %45 = landingpad { ptr, i32 }
          catch ptr null
  %46 = extractvalue { ptr, i32 } %45, 0
  tail call void @__clang_call_terminate(ptr %46) #24
  unreachable

_ZN7obj_refI4expr11ast_managerED2Ev.exit7:        ; preds = %_ZN7obj_refI4expr11ast_managerED2Ev.exit, %37, %43
  call void @llvm.lifetime.end.p0(i64 16, ptr nonnull %6) #23
  br i1 %.not.i, label %_ZN7obj_refI4expr11ast_managerED2Ev.exit9, label %47

47:                                               ; preds = %_ZN7obj_refI4expr11ast_managerED2Ev.exit7
  %48 = getelementptr inbounds nuw i8, ptr %17, i64 8
  %49 = load i32, ptr %48, align 4, !tbaa !125
  %50 = add i32 %49, -1
  store i32 %50, ptr %48, align 4, !tbaa !125
  %51 = icmp eq i32 %50, 0
  br i1 %51, label %52, label %_ZN7obj_refI4expr11ast_managerED2Ev.exit9

52:                                               ; preds = %47
  invoke void @_ZN11ast_manager11delete_nodeEP3ast(ptr noundef nonnull align 8 dereferenceable(976) %9, ptr noundef nonnull %17)
          to label %_ZN7obj_refI4expr11ast_managerED2Ev.exit9 unwind label %53

53:                                               ; preds = %52
  %54 = landingpad { ptr, i32 }
          catch ptr null
  %55 = extractvalue { ptr, i32 } %54, 0
  tail call void @__clang_call_terminate(ptr %55) #24
  unreachable

_ZN7obj_refI4expr11ast_managerED2Ev.exit9:        ; preds = %_ZN7obj_refI4expr11ast_managerED2Ev.exit7, %47, %52
  call void @llvm.lifetime.end.p0(i64 16, ptr nonnull %5) #23
  ret void

56:                                               ; preds = %16, %23, %22, %21, %4
  %57 = landingpad { ptr, i32 }
          cleanup
  call void @_ZN7obj_refI4expr11ast_managerED2Ev(ptr noundef nonnull align 8 dereferenceable(16) %7) #23
  call void @llvm.lifetime.end.p0(i64 16, ptr nonnull %7) #23
  call void @_ZN7obj_refI4expr11ast_managerED2Ev(ptr noundef nonnull align 8 dereferenceable(16) %6) #23
  call void @llvm.lifetime.end.p0(i64 16, ptr nonnull %6) #23
  call void @_ZN7obj_refI4expr11ast_managerED2Ev(ptr noundef nonnull align 8 dereferenceable(16) %5) #23
  call void @llvm.lifetime.end.p0(i64 16, ptr nonnull %5) #23
  resume { ptr, i32 } %57
}